target datalayout = "e-m:e-p270:32:32-p271:32:32-p272:64:64-i64:64-i128:128-f80:128-n8:16:32:64-S128"
target triple = "x86_64-pc-linux-gnu"

%"struct.Luau::FValue.0" = type { i8, i8, ptr, ptr }
%"class.Luau::(anonymous namespace)::TypeCloner" = type <{ %"struct.Luau::NotNull", %"struct.Luau::NotNull.1", %"class.std::vector", %"struct.Luau::NotNull.2", %"struct.Luau::NotNull.3", ptr, ptr, i32, [4 x i8] }>
%"struct.Luau::NotNull" = type { ptr }
%"struct.Luau::NotNull.1" = type { ptr }
%"class.std::vector" = type { %"struct.std::_Vector_base" }
%"struct.std::_Vector_base" = type { %"struct.std::_Vector_base<Luau::Variant<const Luau::Type *, const Luau::TypePackVar *>, std::allocator<Luau::Variant<const Luau::Type *, const Luau::TypePackVar *>>>::_Vector_impl" }
%"struct.std::_Vector_base<Luau::Variant<const Luau::Type *, const Luau::TypePackVar *>, std::allocator<Luau::Variant<const Luau::Type *, const Luau::TypePackVar *>>>::_Vector_impl" = type { %"struct.std::_Vector_base<Luau::Variant<const Luau::Type *, const Luau::TypePackVar *>, std::allocator<Luau::Variant<const Luau::Type *, const Luau::TypePackVar *>>>::_Vector_impl_data" }
%"struct.std::_Vector_base<Luau::Variant<const Luau::Type *, const Luau::TypePackVar *>, std::allocator<Luau::Variant<const Luau::Type *, const Luau::TypePackVar *>>>::_Vector_impl_data" = type { ptr, ptr, ptr }
%"struct.Luau::NotNull.2" = type { ptr }
%"struct.Luau::NotNull.3" = type { ptr }
%"struct.Luau::TypePackVar" = type { %"class.Luau::Variant", i8, ptr }
%"class.Luau::Variant" = type { i32, [4 x i8], [64 x i8] }
%"struct.Luau::CloneState" = type { %"struct.Luau::NotNull.1", %"class.std::unordered_map", %"class.std::unordered_map.20" }
%"class.std::unordered_map" = type { %"class.std::_Hashtable" }
%"class.std::_Hashtable" = type { ptr, i64, %"struct.std::__detail::_Hash_node_base", i64, %"struct.std::__detail::_Prime_rehash_policy", ptr }
%"struct.std::__detail::_Hash_node_base" = type { ptr }
%"struct.std::__detail::_Prime_rehash_policy" = type { float, i64 }
%"class.std::unordered_map.20" = type { %"class.std::_Hashtable.21" }
%"class.std::_Hashtable.21" = type { ptr, i64, %"struct.std::__detail::_Hash_node_base", i64, %"struct.std::__detail::_Prime_rehash_policy", ptr }

@_ZN5FFlag26LuauFreezeIgnorePersistentE = external global %"struct.Luau::FValue.0", align 8

; Function Attrs: mustprogress nounwind uwtable
define linkonce_odr dso_local void @_ZNSt15__new_allocatorIN4Luau7VariantIJPKNS0_4TypeEPKNS0_11TypePackVarEEEEEC2Ev(ptr noundef nonnull align 1 dereferenceable(1) %0) unnamed_addr #2 comdat align 2 {
  %2 = alloca ptr, align 8
  store ptr %0, ptr %2, align 8, !tbaa !223
  ret void
}

; Function Attrs: mustprogress nounwind uwtable
define linkonce_odr dso_local void @_ZNSt12_Vector_baseIN4Luau7VariantIJPKNS0_4TypeEPKNS0_11TypePackVarEEEESaIS8_EE17_Vector_impl_dataC2Ev(ptr noundef nonnull align 8 dereferenceable(24) %0) unnamed_addr #2 comdat align 2 {
  %2 = alloca ptr, align 8
  store ptr %0, ptr %2, align 8, !tbaa !218
  %3 = load ptr, ptr %2, align 8
  %4 = getelementptr inbounds nuw %"struct.std::_Vector_base<Luau::Variant<const Luau::Type *, const Luau::TypePackVar *>, std::allocator<Luau::Variant<const Luau::Type *, const Luau::TypePackVar *>>>::_Vector_impl_data", ptr %3, i32 0, i32 0
  store ptr null, ptr %4, align 8, !tbaa !220
  %5 = getelementptr inbounds nuw %"struct.std::_Vector_base<Luau::Variant<const Luau::Type *, const Luau::TypePackVar *>, std::allocator<Luau::Variant<const Luau::Type *, const Luau::TypePackVar *>>>::_Vector_impl_data", ptr %3, i32 0, i32 1
  store ptr null, ptr %5, align 8, !tbaa !221
  %6 = getelementptr inbounds nuw %"struct.std::_Vector_base<Luau::Variant<const Luau::Type *, const Luau::TypePackVar *>, std::allocator<Luau::Variant<const Luau::Type *, const Luau::TypePackVar *>>>::_Vector_impl_data", ptr %3, i32 0, i32 2
  store ptr null, ptr %6, align 8, !tbaa !222
  ret void
}

; Function Attrs: mustprogress nounwind uwtable
define linkonce_odr dso_local void @_ZNSaIN4Luau7VariantIJPKNS_4TypeEPKNS_11TypePackVarEEEEEC2Ev(ptr noundef nonnull align 1 dereferenceable(1) %0) unnamed_addr #2 comdat align 2 {
  %2 = alloca ptr, align 8
  store ptr %0, ptr %2, align 8, !tbaa !216
  %3 = load ptr, ptr %2, align 8
  call void @_ZNSt15__new_allocatorIN4Luau7VariantIJPKNS0_4TypeEPKNS0_11TypePackVarEEEEEC2Ev(ptr noundef nonnull align 1 dereferenceable(1) %3) #18
  ret void
}

; Function Attrs: mustprogress nounwind uwtable
define linkonce_odr dso_local void @_ZNSt12_Vector_baseIN4Luau7VariantIJPKNS0_4TypeEPKNS0_11TypePackVarEEEESaIS8_EE12_Vector_implC2Ev(ptr noundef nonnull align 8 dereferenceable(24) %0) unnamed_addr #2 comdat align 2 {
  %2 = alloca ptr, align 8
  store ptr %0, ptr %2, align 8, !tbaa !214
  %3 = load ptr, ptr %2, align 8
  call void @_ZNSaIN4Luau7VariantIJPKNS_4TypeEPKNS_11TypePackVarEEEEEC2Ev(ptr noundef nonnull align 1 dereferenceable(1) %3) #18
  call void @_ZNSt12_Vector_baseIN4Luau7VariantIJPKNS0_4TypeEPKNS0_11TypePackVarEEEESaIS8_EE17_Vector_impl_dataC2Ev(ptr noundef nonnull align 8 dereferenceable(24) %3) #18
  ret void
}

; Function Attrs: mustprogress nounwind uwtable
define linkonce_odr dso_local void @_ZNSt12_Vector_baseIN4Luau7VariantIJPKNS0_4TypeEPKNS0_11TypePackVarEEEESaIS8_EEC2Ev(ptr noundef nonnull align 8 dereferenceable(24) %0) unnamed_addr #2 comdat align 2 {
  %2 = alloca ptr, align 8
  store ptr %0, ptr %2, align 8, !tbaa !212
  %3 = load ptr, ptr %2, align 8
  %4 = getelementptr inbounds nuw %"struct.std::_Vector_base", ptr %3, i32 0, i32 0
  call void @_ZNSt12_Vector_baseIN4Luau7VariantIJPKNS0_4TypeEPKNS0_11TypePackVarEEEESaIS8_EE12_Vector_implC2Ev(ptr noundef nonnull align 8 dereferenceable(24) %4) #18
  ret void
}

; Function Attrs: mustprogress nounwind uwtable
define linkonce_odr dso_local void @_ZNSt6vectorIN4Luau7VariantIJPKNS0_4TypeEPKNS0_11TypePackVarEEEESaIS8_EEC2Ev(ptr noundef nonnull align 8 dereferenceable(24) %0) unnamed_addr #2 comdat align 2 {
  %2 = alloca ptr, align 8
  store ptr %0, ptr %2, align 8, !tbaa !210
  %3 = load ptr, ptr %2, align 8
  call void @_ZNSt12_Vector_baseIN4Luau7VariantIJPKNS0_4TypeEPKNS0_11TypePackVarEEEESaIS8_EEC2Ev(ptr noundef nonnull align 8 dereferenceable(24) %3) #18
  ret void
}

; Function Attrs: mustprogress nounwind uwtable
define internal void @_ZN4Luau12_GLOBAL__N_110TypeClonerC2ENS_7NotNullINS_9TypeArenaEEENS2_INS_12BuiltinTypesEEENS2_ISt13unordered_mapIPKNS_4TypeESA_St4hashISA_ESt8equal_toISA_ESaISt4pairIKSA_SA_EEEEENS2_IS7_IPKNS_11TypePackVarESN_SB_ISN_ESD_ISN_ESaISF_IKSN_SN_EEEEESA_SN_(ptr noundef nonnull align 8 dereferenceable(76) %0, ptr %1, ptr %2, ptr %3, ptr %4, ptr noundef %5, ptr noundef %6) unnamed_addr #2 align 2 {
  %8 = alloca %"struct.Luau::NotNull", align 8
  %9 = alloca %"struct.Luau::NotNull.1", align 8
  %10 = alloca %"struct.Luau::NotNull.2", align 8
  %11 = alloca %"struct.Luau::NotNull.3", align 8
  %12 = alloca ptr, align 8
  %13 = alloca ptr, align 8
  %14 = alloca ptr, align 8
  %15 = getelementptr inbounds nuw %"struct.Luau::NotNull", ptr %8, i32 0, i32 0
  store ptr %1, ptr %15, align 8
  %16 = getelementptr inbounds nuw %"struct.Luau::NotNull.1", ptr %9, i32 0, i32 0
  store ptr %2, ptr %16, align 8
  %17 = getelementptr inbounds nuw %"struct.Luau::NotNull.2", ptr %10, i32 0, i32 0
  store ptr %3, ptr %17, align 8
  %18 = getelementptr inbounds nuw %"struct.Luau::NotNull.3", ptr %11, i32 0, i32 0
  store ptr %4, ptr %18, align 8
  store ptr %0, ptr %12, align 8, !tbaa !54
  store ptr %5, ptr %13, align 8, !tbaa !56
  store ptr %6, ptr %14, align 8, !tbaa !22
  %19 = load ptr, ptr %12, align 8
  %20 = getelementptr inbounds nuw %"class.Luau::(anonymous namespace)::TypeCloner", ptr %19, i32 0, i32 0
  call void @llvm.memcpy.p0.p0.i64(ptr align 8 %20, ptr align 8 %8, i64 8, i1 false), !tbaa.struct !58
  %21 = getelementptr inbounds nuw %"class.Luau::(anonymous namespace)::TypeCloner", ptr %19, i32 0, i32 1
  call void @llvm.memcpy.p0.p0.i64(ptr align 8 %21, ptr align 8 %9, i64 8, i1 false), !tbaa.struct !31
  %22 = getelementptr inbounds nuw %"class.Luau::(anonymous namespace)::TypeCloner", ptr %19, i32 0, i32 2
  call void @_ZNSt6vectorIN4Luau7VariantIJPKNS0_4TypeEPKNS0_11TypePackVarEEEESaIS8_EEC2Ev(ptr noundef nonnull align 8 dereferenceable(24) %22) #18
  %23 = getelementptr inbounds nuw %"class.Luau::(anonymous namespace)::TypeCloner", ptr %19, i32 0, i32 3
  call void @llvm.memcpy.p0.p0.i64(ptr align 8 %23, ptr align 8 %10, i64 8, i1 false), !tbaa.struct !59
  %24 = getelementptr inbounds nuw %"class.Luau::(anonymous namespace)::TypeCloner", ptr %19, i32 0, i32 4
  call void @llvm.memcpy.p0.p0.i64(ptr align 8 %24, ptr align 8 %11, i64 8, i1 false), !tbaa.struct !60
  %25 = getelementptr inbounds nuw %"class.Luau::(anonymous namespace)::TypeCloner", ptr %19, i32 0, i32 5
  %26 = load ptr, ptr %13, align 8, !tbaa !56
  store ptr %26, ptr %25, align 8, !tbaa !61
  %27 = getelementptr inbounds nuw %"class.Luau::(anonymous namespace)::TypeCloner", ptr %19, i32 0, i32 6
  %28 = load ptr, ptr %14, align 8, !tbaa !22
  store ptr %28, ptr %27, align 8, !tbaa !69
  %29 = getelementptr inbounds nuw %"class.Luau::(anonymous namespace)::TypeCloner", ptr %19, i32 0, i32 7
  store i32 0, ptr %29, align 8, !tbaa !70
  ret void
}

; Function Attrs: mustprogress nounwind uwtable
define linkonce_odr dso_local void @_ZN4Luau7NotNullISt13unordered_mapIPKNS_11TypePackVarES4_St4hashIS4_ESt8equal_toIS4_ESaISt4pairIKS4_S4_EEEEC2EPSD_(ptr noundef nonnull align 8 dereferenceable(8) %0, ptr noundef %1) unnamed_addr #2 comdat align 2 {
  %3 = alloca ptr, align 8
  %4 = alloca ptr, align 8
  store ptr %0, ptr %3, align 8, !tbaa !48
  store ptr %1, ptr %4, align 8, !tbaa !50
  %5 = load ptr, ptr %3, align 8
  %6 = getelementptr inbounds nuw %"struct.Luau::NotNull.3", ptr %5, i32 0, i32 0
  %7 = load ptr, ptr %4, align 8, !tbaa !50
  store ptr %7, ptr %6, align 8, !tbaa !52
  ret void
}

; Function Attrs: mustprogress nounwind uwtable
define linkonce_odr dso_local void @_ZN4Luau7NotNullISt13unordered_mapIPKNS_4TypeES4_St4hashIS4_ESt8equal_toIS4_ESaISt4pairIKS4_S4_EEEEC2EPSD_(ptr noundef nonnull align 8 dereferenceable(8) %0, ptr noundef %1) unnamed_addr #2 comdat align 2 {
  %3 = alloca ptr, align 8
  %4 = alloca ptr, align 8
  store ptr %0, ptr %3, align 8, !tbaa !42
  store ptr %1, ptr %4, align 8, !tbaa !44
  %5 = load ptr, ptr %3, align 8
  %6 = getelementptr inbounds nuw %"struct.Luau::NotNull.2", ptr %5, i32 0, i32 0
  %7 = load ptr, ptr %4, align 8, !tbaa !44
  store ptr %7, ptr %6, align 8, !tbaa !46
  ret void
}

; Function Attrs: mustprogress nounwind uwtable
define linkonce_odr dso_local void @_ZN4Luau7NotNullINS_9TypeArenaEEC2EPS1_(ptr noundef nonnull align 8 dereferenceable(8) %0, ptr noundef %1) unnamed_addr #2 comdat align 2 {
  %3 = alloca ptr, align 8
  %4 = alloca ptr, align 8
  store ptr %0, ptr %3, align 8, !tbaa !38
  store ptr %1, ptr %4, align 8, !tbaa !24
  %5 = load ptr, ptr %3, align 8
  %6 = getelementptr inbounds nuw %"struct.Luau::NotNull", ptr %5, i32 0, i32 0
  %7 = load ptr, ptr %4, align 8, !tbaa !24
  store ptr %7, ptr %6, align 8, !tbaa !40
  ret void
}

; Function Attrs: alwaysinline mustprogress nounwind uwtable
define linkonce_odr dso_local noundef zeroext i1 @_ZNK4Luau6FValueIbEcvbEv(ptr noundef nonnull align 8 dereferenceable(24) %0) #4 comdat align 2 {
  %2 = alloca ptr, align 8
  store ptr %0, ptr %2, align 8, !tbaa !34
  %3 = load ptr, ptr %2, align 8
  %4 = getelementptr inbounds nuw %"struct.Luau::FValue.0", ptr %3, i32 0, i32 0
  %5 = load i8, ptr %4, align 8, !tbaa !36, !range !17, !noundef !18
  %6 = trunc i8 %5 to i1
  ret i1 %6
}

; Function Attrs: mustprogress uwtable
define dso_local noundef ptr @_ZN4Luau12shallowCloneEPKNS_11TypePackVarERNS_9TypeArenaERNS_10CloneStateEb(ptr noundef %0, ptr noundef nonnull align 8 dereferenceable(88) %1, ptr noundef nonnull align 8 dereferenceable(120) %2, i1 noundef zeroext %3) #3 personality ptr @__gxx_personality_v0 {
  %5 = alloca ptr, align 8
  %6 = alloca ptr, align 8
  %7 = alloca ptr, align 8
  %8 = alloca ptr, align 8
  %9 = alloca i8, align 1
  %10 = alloca %"class.Luau::(anonymous namespace)::TypeCloner", align 8
  %11 = alloca %"struct.Luau::NotNull", align 8
  %12 = alloca %"struct.Luau::NotNull.1", align 8
  %13 = alloca %"struct.Luau::NotNull.2", align 8
  %14 = alloca %"struct.Luau::NotNull.3", align 8
  %15 = alloca ptr, align 8
  %16 = alloca i32, align 4
  store ptr %0, ptr %6, align 8, !tbaa !22
  store ptr %1, ptr %7, align 8, !tbaa !24
  store ptr %2, ptr %8, align 8, !tbaa !26
  %17 = zext i1 %3 to i8
  store i8 %17, ptr %9, align 1, !tbaa !13
  %18 = load ptr, ptr %6, align 8, !tbaa !22
  %19 = getelementptr inbounds nuw %"struct.Luau::TypePackVar", ptr %18, i32 0, i32 1
  %20 = load i8, ptr %19, align 8, !tbaa !28, !range !17, !noundef !18
  %21 = trunc i8 %20 to i1
  br i1 %21, label %22, label %29

22:                                               ; preds = %4
  %23 = call noundef zeroext i1 @_ZNK4Luau6FValueIbEcvbEv(ptr noundef nonnull align 8 dereferenceable(24) @_ZN5FFlag26LuauFreezeIgnorePersistentE)
  br i1 %23, label %24, label %27

24:                                               ; preds = %22
  %25 = load i8, ptr %9, align 1, !tbaa !13, !range !17, !noundef !18
  %26 = trunc i8 %25 to i1
  br i1 %26, label %29, label %27

27:                                               ; preds = %24, %22
  %28 = load ptr, ptr %6, align 8, !tbaa !22
  store ptr %28, ptr %5, align 8
  br label %61

29:                                               ; preds = %24, %4
  call void @llvm.lifetime.start.p0(i64 80, ptr %10) #18
  %30 = load ptr, ptr %7, align 8, !tbaa !24
  call void @_ZN4Luau7NotNullINS_9TypeArenaEEC2EPS1_(ptr noundef nonnull align 8 dereferenceable(8) %11, ptr noundef %30)
  %31 = load ptr, ptr %8, align 8, !tbaa !26
  %32 = getelementptr inbounds nuw %"struct.Luau::CloneState", ptr %31, i32 0, i32 0
  call void @llvm.memcpy.p0.p0.i64(ptr align 8 %12, ptr align 8 %32, i64 8, i1 false), !tbaa.struct !31
  %33 = load ptr, ptr %8, align 8, !tbaa !26
  %34 = getelementptr inbounds nuw %"struct.Luau::CloneState", ptr %33, i32 0, i32 1
  call void @_ZN4Luau7NotNullISt13unordered_mapIPKNS_4TypeES4_St4hashIS4_ESt8equal_toIS4_ESaISt4pairIKS4_S4_EEEEC2EPSD_(ptr noundef nonnull align 8 dereferenceable(8) %13, ptr noundef %34)
  %35 = load ptr, ptr %8, align 8, !tbaa !26
  %36 = getelementptr inbounds nuw %"struct.Luau::CloneState", ptr %35, i32 0, i32 2
  call void @_ZN4Luau7NotNullISt13unordered_mapIPKNS_11TypePackVarES4_St4hashIS4_ESt8equal_toIS4_ESaISt4pairIKS4_S4_EEEEC2EPSD_(ptr noundef nonnull align 8 dereferenceable(8) %14, ptr noundef %36)
  %37 = call noundef zeroext i1 @_ZNK4Luau6FValueIbEcvbEv(ptr noundef nonnull align 8 dereferenceable(24) @_ZN5FFlag26LuauFreezeIgnorePersistentE)
  br i1 %37, label %38, label %43

38:                                               ; preds = %29
  %39 = load i8, ptr %9, align 1, !tbaa !13, !range !17, !noundef !18
  %40 = trunc i8 %39 to i1
  br i1 %40, label %41, label %43

41:                                               ; preds = %38
  %42 = load ptr, ptr %6, align 8, !tbaa !22
  br label %44

43:                                               ; preds = %38, %29
  br label %44

44:                                               ; preds = %43, %41
  %45 = phi ptr [ %42, %41 ], [ null, %43 ]
  %46 = getelementptr inbounds nuw %"struct.Luau::NotNull", ptr %11, i32 0, i32 0
  %47 = load ptr, ptr %46, align 8
  %48 = getelementptr inbounds nuw %"struct.Luau::NotNull.1", ptr %12, i32 0, i32 0
  %49 = load ptr, ptr %48, align 8
  %50 = getelementptr inbounds nuw %"struct.Luau::NotNull.2", ptr %13, i32 0, i32 0
  %51 = load ptr, ptr %50, align 8
  %52 = getelementptr inbounds nuw %"struct.Luau::NotNull.3", ptr %14, i32 0, i32 0
  %53 = load ptr, ptr %52, align 8
  call void @_ZN4Luau12_GLOBAL__N_110TypeClonerC2ENS_7NotNullINS_9TypeArenaEEENS2_INS_12BuiltinTypesEEENS2_ISt13unordered_mapIPKNS_4TypeESA_St4hashISA_ESt8equal_toISA_ESaISt4pairIKSA_SA_EEEEENS2_IS7_IPKNS_11TypePackVarESN_SB_ISN_ESD_ISN_ESaISF_IKSN_SN_EEEEESA_SN_(ptr noundef nonnull align 8 dereferenceable(76) %10, ptr %47, ptr %49, ptr %51, ptr %53, ptr noundef null, ptr noundef %45)
  %54 = load ptr, ptr %6, align 8, !tbaa !22
  %55 = invoke noundef ptr @_ZN4Luau12_GLOBAL__N_110TypeCloner12shallowCloneEPKNS_11TypePackVarE(ptr noundef nonnull align 8 dereferenceable(76) %10, ptr noundef %54)
          to label %56 unwind label %57

56:                                               ; preds = %44
  store ptr %55, ptr %5, align 8
  call void @_ZN4Luau12_GLOBAL__N_110TypeClonerD2Ev(ptr noundef nonnull align 8 dereferenceable(76) %10) #18
  call void @llvm.lifetime.end.p0(i64 80, ptr %10) #18
  br label %61

57:                                               ; preds = %44
  %58 = landingpad { ptr, i32 }
          cleanup
  %59 = extractvalue { ptr, i32 } %58, 0
  store ptr %59, ptr %15, align 8
  %60 = extractvalue { ptr, i32 } %58, 1
  store i32 %60, ptr %16, align 4
  call void @_ZN4Luau12_GLOBAL__N_110TypeClonerD2Ev(ptr noundef nonnull align 8 dereferenceable(76) %10) #18
  call void @llvm.lifetime.end.p0(i64 80, ptr %10) #18
  br label %63

61:                                               ; preds = %56, %27
  %62 = load ptr, ptr %5, align 8
  ret ptr %62

63:                                               ; preds = %57
  %64 = load ptr, ptr %15, align 8
  %65 = load i32, ptr %16, align 4
  %66 = insertvalue { ptr, i32 } poison, ptr %64, 0
  %67 = insertvalue { ptr, i32 } %66, i32 %65, 1
  resume { ptr, i32 } %67
}