; Function Attrs: mustprogress uwtable
define dso_local noundef ptr @_ZN4Luau12shallowCloneEPKNS_11TypePackVarERNS_9TypeArenaERNS_10CloneStateEb(ptr noundef %0, ptr noundef nonnull align 8 dereferenceable(88) %1, ptr noundef nonnull align 8 dereferenceable(120) %2, i1 noundef zeroext %3) local_unnamed_addr #2 personality ptr @__gxx_personality_v0 {
  %5 = alloca %"class.Luau::(anonymous namespace)::TypeCloner", align 8
  %6 = getelementptr inbounds nuw i8, ptr %0, i64 72
  %7 = load i8, ptr %6, align 8, !tbaa !8, !range !14, !noundef !15
  %8 = trunc nuw i8 %7 to i1
  %.not = xor i1 %8, true
  %9 = load i8, ptr @_ZN5FFlag26LuauFreezeIgnorePersistentE, align 8, !range !14
  %10 = trunc nuw i8 %9 to i1
  %brmerge.demorgan = and i1 %3, %10
  %or.cond = select i1 %.not, i1 true, i1 %brmerge.demorgan
  br i1 %or.cond, label %11, label %45

11:                                               ; preds = %4
  call void @llvm.lifetime.start.p0(i64 80, ptr nonnull %5) #20
  %.sroa.0.0.copyload = load ptr, ptr %2, align 8, !tbaa !16
  %12 = getelementptr inbounds nuw i8, ptr %2, i64 8
  %13 = getelementptr inbounds nuw i8, ptr %2, i64 64
  %14 = select i1 %brmerge.demorgan, ptr %0, ptr null
  store ptr %1, ptr %5, align 8, !tbaa !18
  %15 = getelementptr inbounds nuw i8, ptr %5, i64 8
  store ptr %.sroa.0.0.copyload, ptr %15, align 8, !tbaa !16
  %16 = getelementptr inbounds nuw i8, ptr %5, i64 16
  call void @llvm.memset.p0.i64(ptr noundef nonnull align 8 dereferenceable(24) %16, i8 0, i64 24, i1 false)
  %17 = getelementptr inbounds nuw i8, ptr %5, i64 40
  store ptr %12, ptr %17, align 8, !tbaa !19
  %18 = getelementptr inbounds nuw i8, ptr %5, i64 48
  store ptr %13, ptr %18, align 8, !tbaa !21
  %19 = getelementptr inbounds nuw i8, ptr %5, i64 56
  store ptr null, ptr %19, align 8, !tbaa !23
  %20 = getelementptr inbounds nuw i8, ptr %5, i64 64
  store ptr %14, ptr %20, align 8, !tbaa !36
  %21 = getelementptr inbounds nuw i8, ptr %5, i64 72
  store i32 0, ptr %21, align 8, !tbaa !37
  %22 = invoke fastcc noundef ptr @_ZN4Luau12_GLOBAL__N_110TypeCloner12shallowCloneEPKNS_11TypePackVarE(ptr noundef nonnull align 8 dereferenceable(76) %5, ptr noundef nonnull %0)
          to label %23 unwind label %43

23:                                               ; preds = %11
  %24 = load ptr, ptr %16, align 8, !tbaa !38
  %25 = getelementptr inbounds nuw i8, ptr %5, i64 24
  %26 = load ptr, ptr %25, align 8, !tbaa !39
  %.not4.i.i.i.i.i = icmp eq ptr %24, %26
  br i1 %.not4.i.i.i.i.i, label %_ZSt8_DestroyIPN4Luau7VariantIJPKNS0_4TypeEPKNS0_11TypePackVarEEEES8_EvT_SA_RSaIT0_E.exit.i.i, label %.lr.ph.i.i.i.i.i

.lr.ph.i.i.i.i.i:                                 ; preds = %23, %_ZSt8_DestroyIN4Luau7VariantIJPKNS0_4TypeEPKNS0_11TypePackVarEEEEEvPT_.exit.i.i.i.i.i
  %.05.i.i.i.i.i = phi ptr [ %35, %_ZSt8_DestroyIN4Luau7VariantIJPKNS0_4TypeEPKNS0_11TypePackVarEEEEEvPT_.exit.i.i.i.i.i ], [ %24, %23 ]
  %27 = load i32, ptr %.05.i.i.i.i.i, align 8, !tbaa !40
  %28 = sext i32 %27 to i64
  %29 = getelementptr inbounds [2 x ptr], ptr @_ZN4Luau7VariantIJPKNS_4TypeEPKNS_11TypePackVarEEE9tableDtorE, i64 0, i64 %28
  %30 = load ptr, ptr %29, align 8, !tbaa !42
  %31 = getelementptr inbounds nuw i8, ptr %.05.i.i.i.i.i, i64 8
  invoke void %30(ptr noundef nonnull %31)
          to label %_ZSt8_DestroyIN4Luau7VariantIJPKNS0_4TypeEPKNS0_11TypePackVarEEEEEvPT_.exit.i.i.i.i.i unwind label %32

32:                                               ; preds = %.lr.ph.i.i.i.i.i
  %33 = landingpad { ptr, i32 }
          catch ptr null
  %34 = extractvalue { ptr, i32 } %33, 0
  call void @__clang_call_terminate(ptr %34) #21
  unreachable

_ZSt8_DestroyIN4Luau7VariantIJPKNS0_4TypeEPKNS0_11TypePackVarEEEEEvPT_.exit.i.i.i.i.i: ; preds = %.lr.ph.i.i.i.i.i
  %35 = getelementptr inbounds nuw i8, ptr %.05.i.i.i.i.i, i64 16
  %.not.i.i.i.i.i = icmp eq ptr %35, %26
  br i1 %.not.i.i.i.i.i, label %_ZSt8_DestroyIPN4Luau7VariantIJPKNS0_4TypeEPKNS0_11TypePackVarEEEES8_EvT_SA_RSaIT0_E.exitthread-pre-split.i.i, label %.lr.ph.i.i.i.i.i, !llvm.loop !43

_ZSt8_DestroyIPN4Luau7VariantIJPKNS0_4TypeEPKNS0_11TypePackVarEEEES8_EvT_SA_RSaIT0_E.exitthread-pre-split.i.i: ; preds = %_ZSt8_DestroyIN4Luau7VariantIJPKNS0_4TypeEPKNS0_11TypePackVarEEEEEvPT_.exit.i.i.i.i.i
  %.pr.i.i = load ptr, ptr %16, align 8, !tbaa !38
  br label %_ZSt8_DestroyIPN4Luau7VariantIJPKNS0_4TypeEPKNS0_11TypePackVarEEEES8_EvT_SA_RSaIT0_E.exit.i.i

_ZSt8_DestroyIPN4Luau7VariantIJPKNS0_4TypeEPKNS0_11TypePackVarEEEES8_EvT_SA_RSaIT0_E.exit.i.i: ; preds = %_ZSt8_DestroyIPN4Luau7VariantIJPKNS0_4TypeEPKNS0_11TypePackVarEEEES8_EvT_SA_RSaIT0_E.exitthread-pre-split.i.i, %23
  %36 = phi ptr [ %.pr.i.i, %_ZSt8_DestroyIPN4Luau7VariantIJPKNS0_4TypeEPKNS0_11TypePackVarEEEES8_EvT_SA_RSaIT0_E.exitthread-pre-split.i.i ], [ %24, %23 ]
  %.not.i.i.i.i = icmp eq ptr %36, null
  br i1 %.not.i.i.i.i, label %_ZN4Luau12_GLOBAL__N_110TypeClonerD2Ev.exit, label %37

37:                                               ; preds = %_ZSt8_DestroyIPN4Luau7VariantIJPKNS0_4TypeEPKNS0_11TypePackVarEEEES8_EvT_SA_RSaIT0_E.exit.i.i
  %38 = getelementptr inbounds nuw i8, ptr %5, i64 32
  %39 = load ptr, ptr %38, align 8, !tbaa !45
  %40 = ptrtoint ptr %39 to i64
  %41 = ptrtoint ptr %36 to i64
  %42 = sub i64 %40, %41
  call void @_ZdlPvm(ptr noundef nonnull %36, i64 noundef %42) #22
  br label %_ZN4Luau12_GLOBAL__N_110TypeClonerD2Ev.exit

_ZN4Luau12_GLOBAL__N_110TypeClonerD2Ev.exit:      ; preds = %_ZSt8_DestroyIPN4Luau7VariantIJPKNS0_4TypeEPKNS0_11TypePackVarEEEES8_EvT_SA_RSaIT0_E.exit.i.i, %37
  call void @llvm.lifetime.end.p0(i64 80, ptr nonnull %5) #20
  br label %45

43:                                               ; preds = %11
  %44 = landingpad { ptr, i32 }
          cleanup
  call fastcc void @_ZN4Luau12_GLOBAL__N_110TypeClonerD2Ev(ptr noundef nonnull align 8 dereferenceable(76) %5) #20
  call void @llvm.lifetime.end.p0(i64 80, ptr nonnull %5) #20
  resume { ptr, i32 } %44

45:                                               ; preds = %4, %_ZN4Luau12_GLOBAL__N_110TypeClonerD2Ev.exit
  %.0 = phi ptr [ %22, %_ZN4Luau12_GLOBAL__N_110TypeClonerD2Ev.exit ], [ %0, %4 ]
  ret ptr %.0
}